target datalayout = "e-m:e-p270:32:32-p271:32:32-p272:64:64-i64:64-i128:128-f80:128-n8:16:32:64-S128"
target triple = "x86_64-pc-linux-gnu"

; Function Attrs: nounwind uwtable
define internal void @SHADecode64(ptr noundef %0, ptr noundef %1, i32 noundef %2) #1 {
  %4 = alloca ptr, align 8
  %5 = alloca ptr, align 8
  %6 = alloca i32, align 4
  %7 = alloca i32, align 4
  %8 = alloca i32, align 4
  store ptr %0, ptr %4, align 8
  store ptr %1, ptr %5, align 8
  store i32 %2, ptr %6, align 4
  store i32 0, ptr %7, align 4
  store i32 0, ptr %8, align 4
  br label %9

9:                                                ; preds = %87, %3
  %10 = load i32, ptr %8, align 4
  %11 = load i32, ptr %6, align 4
  %12 = icmp ult i32 %10, %11
  br i1 %12, label %13, label %92

13:                                               ; preds = %9
  %14 = load ptr, ptr %5, align 8
  %15 = load i32, ptr %8, align 4
  %16 = add i32 %15, 7
  %17 = zext i32 %16 to i64
  %18 = getelementptr inbounds i8, ptr %14, i64 %17
  %19 = load i8, ptr %18, align 1
  %20 = zext i8 %19 to i64
  %21 = load ptr, ptr %5, align 8
  %22 = load i32, ptr %8, align 4
  %23 = add i32 %22, 6
  %24 = zext i32 %23 to i64
  %25 = getelementptr inbounds i8, ptr %21, i64 %24
  %26 = load i8, ptr %25, align 1
  %27 = zext i8 %26 to i64
  %28 = shl i64 %27, 8
  %29 = or i64 %20, %28
  %30 = load ptr, ptr %5, align 8
  %31 = load i32, ptr %8, align 4
  %32 = add i32 %31, 5
  %33 = zext i32 %32 to i64
  %34 = getelementptr inbounds i8, ptr %30, i64 %33
  %35 = load i8, ptr %34, align 1
  %36 = zext i8 %35 to i64
  %37 = shl i64 %36, 16
  %38 = or i64 %29, %37
  %39 = load ptr, ptr %5, align 8
  %40 = load i32, ptr %8, align 4
  %41 = add i32 %40, 4
  %42 = zext i32 %41 to i64
  %43 = getelementptr inbounds i8, ptr %39, i64 %42
  %44 = load i8, ptr %43, align 1
  %45 = zext i8 %44 to i64
  %46 = shl i64 %45, 24
  %47 = or i64 %38, %46
  %48 = load ptr, ptr %5, align 8
  %49 = load i32, ptr %8, align 4
  %50 = add i32 %49, 3
  %51 = zext i32 %50 to i64
  %52 = getelementptr inbounds i8, ptr %48, i64 %51
  %53 = load i8, ptr %52, align 1
  %54 = zext i8 %53 to i64
  %55 = shl i64 %54, 32
  %56 = or i64 %47, %55
  %57 = load ptr, ptr %5, align 8
  %58 = load i32, ptr %8, align 4
  %59 = add i32 %58, 2
  %60 = zext i32 %59 to i64
  %61 = getelementptr inbounds i8, ptr %57, i64 %60
  %62 = load i8, ptr %61, align 1
  %63 = zext i8 %62 to i64
  %64 = shl i64 %63, 40
  %65 = or i64 %56, %64
  %66 = load ptr, ptr %5, align 8
  %67 = load i32, ptr %8, align 4
  %68 = add i32 %67, 1
  %69 = zext i32 %68 to i64
  %70 = getelementptr inbounds i8, ptr %66, i64 %69
  %71 = load i8, ptr %70, align 1
  %72 = zext i8 %71 to i64
  %73 = shl i64 %72, 48
  %74 = or i64 %65, %73
  %75 = load ptr, ptr %5, align 8
  %76 = load i32, ptr %8, align 4
  %77 = zext i32 %76 to i64
  %78 = getelementptr inbounds i8, ptr %75, i64 %77
  %79 = load i8, ptr %78, align 1
  %80 = zext i8 %79 to i64
  %81 = shl i64 %80, 56
  %82 = or i64 %74, %81
  %83 = load ptr, ptr %4, align 8
  %84 = load i32, ptr %7, align 4
  %85 = zext i32 %84 to i64
  %86 = getelementptr inbounds i64, ptr %83, i64 %85
  store i64 %82, ptr %86, align 8
  br label %87

87:                                               ; preds = %13
  %88 = load i32, ptr %7, align 4
  %89 = add i32 %88, 1
  store i32 %89, ptr %7, align 4
  %90 = load i32, ptr %8, align 4
  %91 = add i32 %90, 8
  store i32 %91, ptr %8, align 4
  br label %9

92:                                               ; preds = %9
  ret void
}

; Function Attrs: nounwind uwtable
define internal void @SHA512Transform(ptr noundef %0, ptr noundef %1) #1 {
  %3 = alloca ptr, align 8
  %4 = alloca ptr, align 8
  %5 = alloca i64, align 8
  %6 = alloca i64, align 8
  %7 = alloca i64, align 8
  %8 = alloca i64, align 8
  %9 = alloca i64, align 8
  %10 = alloca i64, align 8
  %11 = alloca i64, align 8
  %12 = alloca i64, align 8
  %13 = alloca [16 x i64], align 16
  %14 = alloca i64, align 8
  %15 = alloca i64, align 8
  %16 = alloca [80 x i64], align 16
  %17 = alloca i32, align 4
  store ptr %0, ptr %3, align 8
  store ptr %1, ptr %4, align 8
  %18 = load ptr, ptr %3, align 8
  %19 = getelementptr inbounds i64, ptr %18, i64 0
  %20 = load i64, ptr %19, align 8
  store i64 %20, ptr %5, align 8
  %21 = load ptr, ptr %3, align 8
  %22 = getelementptr inbounds i64, ptr %21, i64 1
  %23 = load i64, ptr %22, align 8
  store i64 %23, ptr %6, align 8
  %24 = load ptr, ptr %3, align 8
  %25 = getelementptr inbounds i64, ptr %24, i64 2
  %26 = load i64, ptr %25, align 8
  store i64 %26, ptr %7, align 8
  %27 = load ptr, ptr %3, align 8
  %28 = getelementptr inbounds i64, ptr %27, i64 3
  %29 = load i64, ptr %28, align 8
  store i64 %29, ptr %8, align 8
  %30 = load ptr, ptr %3, align 8
  %31 = getelementptr inbounds i64, ptr %30, i64 4
  %32 = load i64, ptr %31, align 8
  store i64 %32, ptr %9, align 8
  %33 = load ptr, ptr %3, align 8
  %34 = getelementptr inbounds i64, ptr %33, i64 5
  %35 = load i64, ptr %34, align 8
  store i64 %35, ptr %10, align 8
  %36 = load ptr, ptr %3, align 8
  %37 = getelementptr inbounds i64, ptr %36, i64 6
  %38 = load i64, ptr %37, align 8
  store i64 %38, ptr %11, align 8
  %39 = load ptr, ptr %3, align 8
  %40 = getelementptr inbounds i64, ptr %39, i64 7
  %41 = load i64, ptr %40, align 8
  store i64 %41, ptr %12, align 8
  %42 = getelementptr inbounds [16 x i64], ptr %13, i64 0, i64 0
  %43 = load ptr, ptr %4, align 8
  call void @SHADecode64(ptr noundef %42, ptr noundef %43, i32 noundef 128)
  store i32 0, ptr %17, align 4
  br label %44

44:                                               ; preds = %55, %2
  %45 = load i32, ptr %17, align 4
  %46 = icmp slt i32 %45, 16
  br i1 %46, label %47, label %58

47:                                               ; preds = %44
  %48 = load i32, ptr %17, align 4
  %49 = sext i32 %48 to i64
  %50 = getelementptr inbounds [16 x i64], ptr %13, i64 0, i64 %49
  %51 = load i64, ptr %50, align 8
  %52 = load i32, ptr %17, align 4
  %53 = sext i32 %52 to i64
  %54 = getelementptr inbounds [80 x i64], ptr %16, i64 0, i64 %53
  store i64 %51, ptr %54, align 8
  br label %55

55:                                               ; preds = %47
  %56 = load i32, ptr %17, align 4
  %57 = add nsw i32 %56, 1
  store i32 %57, ptr %17, align 4
  br label %44

58:                                               ; preds = %44
  store i32 16, ptr %17, align 4
  br label %59

59:                                               ; preds = %147, %58
  %60 = load i32, ptr %17, align 4
  %61 = icmp slt i32 %60, 80
  br i1 %61, label %62, label %150

62:                                               ; preds = %59
  %63 = load i32, ptr %17, align 4
  %64 = sub nsw i32 %63, 2
  %65 = sext i32 %64 to i64
  %66 = getelementptr inbounds [80 x i64], ptr %16, i64 0, i64 %65
  %67 = load i64, ptr %66, align 8
  %68 = lshr i64 %67, 19
  %69 = load i32, ptr %17, align 4
  %70 = sub nsw i32 %69, 2
  %71 = sext i32 %70 to i64
  %72 = getelementptr inbounds [80 x i64], ptr %16, i64 0, i64 %71
  %73 = load i64, ptr %72, align 8
  %74 = shl i64 %73, 45
  %75 = or i64 %68, %74
  %76 = load i32, ptr %17, align 4
  %77 = sub nsw i32 %76, 2
  %78 = sext i32 %77 to i64
  %79 = getelementptr inbounds [80 x i64], ptr %16, i64 0, i64 %78
  %80 = load i64, ptr %79, align 8
  %81 = lshr i64 %80, 61
  %82 = load i32, ptr %17, align 4
  %83 = sub nsw i32 %82, 2
  %84 = sext i32 %83 to i64
  %85 = getelementptr inbounds [80 x i64], ptr %16, i64 0, i64 %84
  %86 = load i64, ptr %85, align 8
  %87 = shl i64 %86, 3
  %88 = or i64 %81, %87
  %89 = xor i64 %75, %88
  %90 = load i32, ptr %17, align 4
  %91 = sub nsw i32 %90, 2
  %92 = sext i32 %91 to i64
  %93 = getelementptr inbounds [80 x i64], ptr %16, i64 0, i64 %92
  %94 = load i64, ptr %93, align 8
  %95 = lshr i64 %94, 6
  %96 = xor i64 %89, %95
  %97 = load i32, ptr %17, align 4
  %98 = sub nsw i32 %97, 7
  %99 = sext i32 %98 to i64
  %100 = getelementptr inbounds [80 x i64], ptr %16, i64 0, i64 %99
  %101 = load i64, ptr %100, align 8
  %102 = add i64 %96, %101
  %103 = load i32, ptr %17, align 4
  %104 = sub nsw i32 %103, 15
  %105 = sext i32 %104 to i64
  %106 = getelementptr inbounds [80 x i64], ptr %16, i64 0, i64 %105
  %107 = load i64, ptr %106, align 8
  %108 = lshr i64 %107, 1
  %109 = load i32, ptr %17, align 4
  %110 = sub nsw i32 %109, 15
  %111 = sext i32 %110 to i64
  %112 = getelementptr inbounds [80 x i64], ptr %16, i64 0, i64 %111
  %113 = load i64, ptr %112, align 8
  %114 = shl i64 %113, 63
  %115 = or i64 %108, %114
  %116 = load i32, ptr %17, align 4
  %117 = sub nsw i32 %116, 15
  %118 = sext i32 %117 to i64
  %119 = getelementptr inbounds [80 x i64], ptr %16, i64 0, i64 %118
  %120 = load i64, ptr %119, align 8
  %121 = lshr i64 %120, 8
  %122 = load i32, ptr %17, align 4
  %123 = sub nsw i32 %122, 15
  %124 = sext i32 %123 to i64
  %125 = getelementptr inbounds [80 x i64], ptr %16, i64 0, i64 %124
  %126 = load i64, ptr %125, align 8
  %127 = shl i64 %126, 56
  %128 = or i64 %121, %127
  %129 = xor i64 %115, %128
  %130 = load i32, ptr %17, align 4
  %131 = sub nsw i32 %130, 15
  %132 = sext i32 %131 to i64
  %133 = getelementptr inbounds [80 x i64], ptr %16, i64 0, i64 %132
  %134 = load i64, ptr %133, align 8
  %135 = lshr i64 %134, 7
  %136 = xor i64 %129, %135
  %137 = add i64 %102, %136
  %138 = load i32, ptr %17, align 4
  %139 = sub nsw i32 %138, 16
  %140 = sext i32 %139 to i64
  %141 = getelementptr inbounds [80 x i64], ptr %16, i64 0, i64 %140
  %142 = load i64, ptr %141, align 8
  %143 = add i64 %137, %142
  %144 = load i32, ptr %17, align 4
  %145 = sext i32 %144 to i64
  %146 = getelementptr inbounds [80 x i64], ptr %16, i64 0, i64 %145
  store i64 %143, ptr %146, align 8
  br label %147

147:                                              ; preds = %62
  %148 = load i32, ptr %17, align 4
  %149 = add nsw i32 %148, 1
  store i32 %149, ptr %17, align 4
  br label %59

150:                                              ; preds = %59
  store i32 0, ptr %17, align 4
  br label %151

151:                                              ; preds = %234, %150
  %152 = load i32, ptr %17, align 4
  %153 = icmp slt i32 %152, 80
  br i1 %153, label %154, label %237

154:                                              ; preds = %151
  %155 = load i64, ptr %12, align 8
  %156 = load i64, ptr %9, align 8
  %157 = lshr i64 %156, 14
  %158 = load i64, ptr %9, align 8
  %159 = shl i64 %158, 50
  %160 = or i64 %157, %159
  %161 = load i64, ptr %9, align 8
  %162 = lshr i64 %161, 18
  %163 = load i64, ptr %9, align 8
  %164 = shl i64 %163, 46
  %165 = or i64 %162, %164
  %166 = xor i64 %160, %165
  %167 = load i64, ptr %9, align 8
  %168 = lshr i64 %167, 41
  %169 = load i64, ptr %9, align 8
  %170 = shl i64 %169, 23
  %171 = or i64 %168, %170
  %172 = xor i64 %166, %171
  %173 = add i64 %155, %172
  %174 = load i64, ptr %9, align 8
  %175 = load i64, ptr %10, align 8
  %176 = and i64 %174, %175
  %177 = load i64, ptr %9, align 8
  %178 = xor i64 %177, -1
  %179 = load i64, ptr %11, align 8
  %180 = and i64 %178, %179
  %181 = xor i64 %176, %180
  %182 = add i64 %173, %181
  %183 = load i32, ptr %17, align 4
  %184 = sext i32 %183 to i64
  %185 = getelementptr inbounds [128 x i64], ptr @SHA512_K, i64 0, i64 %184
  %186 = load i64, ptr %185, align 8
  %187 = add i64 %182, %186
  %188 = load i32, ptr %17, align 4
  %189 = sext i32 %188 to i64
  %190 = getelementptr inbounds [80 x i64], ptr %16, i64 0, i64 %189
  %191 = load i64, ptr %190, align 8
  %192 = add i64 %187, %191
  store i64 %192, ptr %14, align 8
  %193 = load i64, ptr %5, align 8
  %194 = lshr i64 %193, 28
  %195 = load i64, ptr %5, align 8
  %196 = shl i64 %195, 36
  %197 = or i64 %194, %196
  %198 = load i64, ptr %5, align 8
  %199 = lshr i64 %198, 34
  %200 = load i64, ptr %5, align 8
  %201 = shl i64 %200, 30
  %202 = or i64 %199, %201
  %203 = xor i64 %197, %202
  %204 = load i64, ptr %5, align 8
  %205 = lshr i64 %204, 39
  %206 = load i64, ptr %5, align 8
  %207 = shl i64 %206, 25
  %208 = or i64 %205, %207
  %209 = xor i64 %203, %208
  %210 = load i64, ptr %5, align 8
  %211 = load i64, ptr %6, align 8
  %212 = and i64 %210, %211
  %213 = load i64, ptr %5, align 8
  %214 = load i64, ptr %7, align 8
  %215 = and i64 %213, %214
  %216 = xor i64 %212, %215
  %217 = load i64, ptr %6, align 8
  %218 = load i64, ptr %7, align 8
  %219 = and i64 %217, %218
  %220 = xor i64 %216, %219
  %221 = add i64 %209, %220
  store i64 %221, ptr %15, align 8
  %222 = load i64, ptr %11, align 8
  store i64 %222, ptr %12, align 8
  %223 = load i64, ptr %10, align 8
  store i64 %223, ptr %11, align 8
  %224 = load i64, ptr %9, align 8
  store i64 %224, ptr %10, align 8
  %225 = load i64, ptr %8, align 8
  %226 = load i64, ptr %14, align 8
  %227 = add i64 %225, %226
  store i64 %227, ptr %9, align 8
  %228 = load i64, ptr %7, align 8
  store i64 %228, ptr %8, align 8
  %229 = load i64, ptr %6, align 8
  store i64 %229, ptr %7, align 8
  %230 = load i64, ptr %5, align 8
  store i64 %230, ptr %6, align 8
  %231 = load i64, ptr %14, align 8
  %232 = load i64, ptr %15, align 8
  %233 = add i64 %231, %232
  store i64 %233, ptr %5, align 8
  br label %234

234:                                              ; preds = %154
  %235 = load i32, ptr %17, align 4
  %236 = add nsw i32 %235, 1
  store i32 %236, ptr %17, align 4
  br label %151

237:                                              ; preds = %151
  %238 = load i64, ptr %5, align 8
  %239 = load ptr, ptr %3, align 8
  %240 = getelementptr inbounds i64, ptr %239, i64 0
  %241 = load i64, ptr %240, align 8
  %242 = add i64 %241, %238
  store i64 %242, ptr %240, align 8
  %243 = load i64, ptr %6, align 8
  %244 = load ptr, ptr %3, align 8
  %245 = getelementptr inbounds i64, ptr %244, i64 1
  %246 = load i64, ptr %245, align 8
  %247 = add i64 %246, %243
  store i64 %247, ptr %245, align 8
  %248 = load i64, ptr %7, align 8
  %249 = load ptr, ptr %3, align 8
  %250 = getelementptr inbounds i64, ptr %249, i64 2
  %251 = load i64, ptr %250, align 8
  %252 = add i64 %251, %248
  store i64 %252, ptr %250, align 8
  %253 = load i64, ptr %8, align 8
  %254 = load ptr, ptr %3, align 8
  %255 = getelementptr inbounds i64, ptr %254, i64 3
  %256 = load i64, ptr %255, align 8
  %257 = add i64 %256, %253
  store i64 %257, ptr %255, align 8
  %258 = load i64, ptr %9, align 8
  %259 = load ptr, ptr %3, align 8
  %260 = getelementptr inbounds i64, ptr %259, i64 4
  %261 = load i64, ptr %260, align 8
  %262 = add i64 %261, %258
  store i64 %262, ptr %260, align 8
  %263 = load i64, ptr %10, align 8
  %264 = load ptr, ptr %3, align 8
  %265 = getelementptr inbounds i64, ptr %264, i64 5
  %266 = load i64, ptr %265, align 8
  %267 = add i64 %266, %263
  store i64 %267, ptr %265, align 8
  %268 = load i64, ptr %11, align 8
  %269 = load ptr, ptr %3, align 8
  %270 = getelementptr inbounds i64, ptr %269, i64 6
  %271 = load i64, ptr %270, align 8
  %272 = add i64 %271, %268
  store i64 %272, ptr %270, align 8
  %273 = load i64, ptr %12, align 8
  %274 = load ptr, ptr %3, align 8
  %275 = getelementptr inbounds i64, ptr %274, i64 7
  %276 = load i64, ptr %275, align 8
  %277 = add i64 %276, %273
  store i64 %277, ptr %275, align 8
  %278 = getelementptr inbounds [16 x i64], ptr %13, i64 0, i64 0
  call void @explicit_bzero(ptr noundef %278, i64 noundef 128) #4
  ret void
}