; Function Attrs: nounwind uwtable
define internal fastcc void @SHA512Transform(ptr nocapture noundef %0, ptr nocapture noundef readonly %1) unnamed_addr #2 {
  %3 = alloca [16 x i64], align 16
  %4 = alloca [80 x i64], align 16
  %5 = load i64, ptr %0, align 8
  %6 = getelementptr inbounds i8, ptr %0, i64 8
  %7 = load i64, ptr %6, align 8
  %8 = getelementptr inbounds i8, ptr %0, i64 16
  %9 = load i64, ptr %8, align 8
  %10 = getelementptr inbounds i8, ptr %0, i64 24
  %11 = load i64, ptr %10, align 8
  %12 = getelementptr inbounds i8, ptr %0, i64 32
  %13 = load i64, ptr %12, align 8
  %14 = getelementptr inbounds i8, ptr %0, i64 40
  %15 = load i64, ptr %14, align 8
  %16 = getelementptr inbounds i8, ptr %0, i64 48
  %17 = load i64, ptr %16, align 8
  %18 = getelementptr inbounds i8, ptr %0, i64 56
  %19 = load i64, ptr %18, align 8
  br label %20

20:                                               ; preds = %20, %2
  %indvars.iv24.i = phi i64 [ 0, %2 ], [ %indvars.iv.next25.i, %20 ]
  %indvars.iv.i = phi i64 [ 0, %2 ], [ %indvars.iv.next.i, %20 ]
  %21 = or disjoint i64 %indvars.iv.i, 7
  %22 = getelementptr inbounds i8, ptr %1, i64 %21
  %23 = load i8, ptr %22, align 1
  %24 = zext i8 %23 to i64
  %25 = or disjoint i64 %indvars.iv.i, 6
  %26 = getelementptr inbounds i8, ptr %1, i64 %25
  %27 = load i8, ptr %26, align 1
  %28 = zext i8 %27 to i64
  %29 = shl nuw nsw i64 %28, 8
  %30 = or disjoint i64 %29, %24
  %31 = or disjoint i64 %indvars.iv.i, 5
  %32 = getelementptr inbounds i8, ptr %1, i64 %31
  %33 = load i8, ptr %32, align 1
  %34 = zext i8 %33 to i64
  %35 = shl nuw nsw i64 %34, 16
  %36 = or disjoint i64 %30, %35
  %37 = or disjoint i64 %indvars.iv.i, 4
  %38 = getelementptr inbounds i8, ptr %1, i64 %37
  %39 = load i8, ptr %38, align 1
  %40 = zext i8 %39 to i64
  %41 = shl nuw nsw i64 %40, 24
  %42 = or disjoint i64 %36, %41
  %43 = or disjoint i64 %indvars.iv.i, 3
  %44 = getelementptr inbounds i8, ptr %1, i64 %43
  %45 = load i8, ptr %44, align 1
  %46 = zext i8 %45 to i64
  %47 = shl nuw nsw i64 %46, 32
  %48 = or disjoint i64 %42, %47
  %49 = or disjoint i64 %indvars.iv.i, 2
  %50 = getelementptr inbounds i8, ptr %1, i64 %49
  %51 = load i8, ptr %50, align 1
  %52 = zext i8 %51 to i64
  %53 = shl nuw nsw i64 %52, 40
  %54 = or i64 %48, %53
  %55 = or disjoint i64 %indvars.iv.i, 1
  %56 = getelementptr inbounds i8, ptr %1, i64 %55
  %57 = load i8, ptr %56, align 1
  %58 = zext i8 %57 to i64
  %59 = shl nuw nsw i64 %58, 48
  %60 = or i64 %54, %59
  %61 = getelementptr inbounds i8, ptr %1, i64 %indvars.iv.i
  %62 = load i8, ptr %61, align 1
  %63 = zext i8 %62 to i64
  %64 = shl nuw i64 %63, 56
  %65 = or i64 %60, %64
  %66 = getelementptr inbounds i64, ptr %3, i64 %indvars.iv24.i
  store i64 %65, ptr %66, align 8
  %indvars.iv.next25.i = add nuw nsw i64 %indvars.iv24.i, 1
  %indvars.iv.next.i = add nuw nsw i64 %indvars.iv.i, 8
  %exitcond.not.i = icmp eq i64 %indvars.iv.next25.i, 16
  br i1 %exitcond.not.i, label %SHADecode64.exit.preheader, label %20

SHADecode64.exit.preheader:                       ; preds = %20
  call void @llvm.memcpy.p0.p0.i64(ptr noundef nonnull align 16 dereferenceable(128) %4, ptr noundef nonnull align 16 dereferenceable(128) %3, i64 128, i1 false)
  %.pre = load i64, ptr %4, align 16
  br label %.preheader88

.preheader88:                                     ; preds = %SHADecode64.exit.preheader, %.preheader88
  %67 = phi i64 [ %.pre, %SHADecode64.exit.preheader ], [ %82, %.preheader88 ]
  %indvars.iv = phi i64 [ 16, %SHADecode64.exit.preheader ], [ %indvars.iv.next, %.preheader88 ]
  %68 = add nsw i64 %indvars.iv, -2
  %69 = getelementptr inbounds [80 x i64], ptr %4, i64 0, i64 %68
  %70 = load i64, ptr %69, align 8
  %71 = tail call i64 @llvm.fshl.i64(i64 %70, i64 %70, i64 45)
  %72 = tail call i64 @llvm.fshl.i64(i64 %70, i64 %70, i64 3)
  %73 = xor i64 %71, %72
  %74 = lshr i64 %70, 6
  %75 = xor i64 %73, %74
  %76 = add nsw i64 %indvars.iv, -7
  %77 = getelementptr inbounds [80 x i64], ptr %4, i64 0, i64 %76
  %78 = load i64, ptr %77, align 8
  %79 = add i64 %75, %78
  %80 = add nsw i64 %indvars.iv, -15
  %81 = getelementptr inbounds [80 x i64], ptr %4, i64 0, i64 %80
  %82 = load i64, ptr %81, align 8
  %83 = tail call i64 @llvm.fshl.i64(i64 %82, i64 %82, i64 63)
  %84 = tail call i64 @llvm.fshl.i64(i64 %82, i64 %82, i64 56)
  %85 = xor i64 %83, %84
  %86 = lshr i64 %82, 7
  %87 = xor i64 %85, %86
  %88 = add i64 %79, %67
  %89 = add i64 %88, %87
  %90 = getelementptr inbounds [80 x i64], ptr %4, i64 0, i64 %indvars.iv
  store i64 %89, ptr %90, align 8
  %indvars.iv.next = add nuw nsw i64 %indvars.iv, 1
  %exitcond.not = icmp eq i64 %indvars.iv.next, 80
  br i1 %exitcond.not, label %.preheader, label %.preheader88

.preheader:                                       ; preds = %.preheader88, %.preheader
  %indvars.iv103 = phi i64 [ %indvars.iv.next104, %.preheader ], [ 0, %.preheader88 ]
  %.08098 = phi i64 [ %119, %.preheader ], [ %5, %.preheader88 ]
  %.08197 = phi i64 [ %.08098, %.preheader ], [ %7, %.preheader88 ]
  %.08296 = phi i64 [ %.08395, %.preheader ], [ %19, %.preheader88 ]
  %.08395 = phi i64 [ %.08494, %.preheader ], [ %17, %.preheader88 ]
  %.08494 = phi i64 [ %.08593, %.preheader ], [ %15, %.preheader88 ]
  %.08593 = phi i64 [ %118, %.preheader ], [ %13, %.preheader88 ]
  %.08692 = phi i64 [ %.08791, %.preheader ], [ %11, %.preheader88 ]
  %.08791 = phi i64 [ %.08197, %.preheader ], [ %9, %.preheader88 ]
  %91 = tail call i64 @llvm.fshl.i64(i64 %.08593, i64 %.08593, i64 50)
  %92 = tail call i64 @llvm.fshl.i64(i64 %.08593, i64 %.08593, i64 46)
  %93 = xor i64 %91, %92
  %94 = tail call i64 @llvm.fshl.i64(i64 %.08593, i64 %.08593, i64 23)
  %95 = xor i64 %93, %94
  %96 = and i64 %.08494, %.08593
  %97 = xor i64 %.08593, -1
  %98 = and i64 %.08395, %97
  %99 = getelementptr inbounds [128 x i64], ptr @SHA512_K, i64 0, i64 %indvars.iv103
  %100 = load i64, ptr %99, align 8
  %101 = getelementptr inbounds [80 x i64], ptr %4, i64 0, i64 %indvars.iv103
  %102 = load i64, ptr %101, align 8
  %103 = add i64 %95, %96
  %104 = add i64 %103, %.08296
  %105 = add i64 %104, %98
  %106 = add i64 %105, %100
  %107 = add i64 %106, %102
  %108 = tail call i64 @llvm.fshl.i64(i64 %.08098, i64 %.08098, i64 36)
  %109 = tail call i64 @llvm.fshl.i64(i64 %.08098, i64 %.08098, i64 30)
  %110 = xor i64 %108, %109
  %111 = tail call i64 @llvm.fshl.i64(i64 %.08098, i64 %.08098, i64 25)
  %112 = xor i64 %110, %111
  %113 = xor i64 %.08197, %.08791
  %114 = and i64 %.08098, %113
  %115 = and i64 %.08197, %.08791
  %116 = xor i64 %114, %115
  %117 = add i64 %112, %116
  %118 = add i64 %107, %.08692
  %119 = add i64 %117, %107
  %indvars.iv.next104 = add nuw nsw i64 %indvars.iv103, 1
  %exitcond106.not = icmp eq i64 %indvars.iv.next104, 80
  br i1 %exitcond106.not, label %120, label %.preheader

120:                                              ; preds = %.preheader
  %121 = add i64 %119, %5
  store i64 %121, ptr %0, align 8
  %122 = add i64 %.08098, %7
  store i64 %122, ptr %6, align 8
  %123 = add i64 %.08197, %9
  store i64 %123, ptr %8, align 8
  %124 = add i64 %.08791, %11
  store i64 %124, ptr %10, align 8
  %125 = add i64 %118, %13
  store i64 %125, ptr %12, align 8
  %126 = add i64 %.08593, %15
  store i64 %126, ptr %14, align 8
  %127 = add i64 %.08494, %17
  store i64 %127, ptr %16, align 8
  %128 = add i64 %.08395, %19
  store i64 %128, ptr %18, align 8
  call void @explicit_bzero(ptr noundef nonnull %3, i64 noundef 128) #7
  ret void
}